; Function Attrs: nounwind sspstrong uwtable
define internal i64 @wkmap_inspect(i64 noundef %0) #0 {
  %2 = tail call ptr @rb_check_typeddata(i64 noundef %0, ptr noundef nonnull @weakkeymap_type) #10
  %3 = load ptr, ptr %2, align 8, !tbaa !30
  %4 = tail call i64 @rb_st_table_size(ptr noundef %3) #10
  %5 = icmp eq i64 %0, 0
  %6 = and i64 %0, 7
  %7 = icmp ne i64 %6, 0
  %8 = or i1 %5, %7
  br i1 %8, label %12, label %9

9:                                                ; preds = %1
  %10 = inttoptr i64 %0 to ptr
  %11 = getelementptr inbounds nuw i8, ptr %10, i64 8
  br label %rb_class_of.exit

12:                                               ; preds = %1
  switch i64 %0, label %15 [
    i64 0, label %rb_class_of.exit
    i64 4, label %13
    i64 20, label %14
  ]

13:                                               ; preds = %12
  br label %rb_class_of.exit

14:                                               ; preds = %12
  br label %rb_class_of.exit

15:                                               ; preds = %12
  %16 = and i64 %0, 1
  %.not.i = icmp eq i64 %16, 0
  br i1 %.not.i, label %17, label %rb_class_of.exit

17:                                               ; preds = %15
  %18 = and i64 %0, 254
  %19 = icmp eq i64 %18, 12
  %spec.select.i = select i1 %19, ptr @rb_cSymbol, ptr @rb_cFloat
  br label %rb_class_of.exit

rb_class_of.exit:                                 ; preds = %9, %12, %13, %14, %15, %17
  %.0.in.i = phi ptr [ @rb_cNilClass, %13 ], [ @rb_cTrueClass, %14 ], [ %11, %9 ], [ @rb_cFalseClass, %12 ], [ @rb_cInteger, %15 ], [ %spec.select.i, %17 ]
  %.0.i = load i64, ptr %.0.in.i, align 8, !tbaa !7
  %20 = tail call i64 @rb_class_name(i64 noundef %.0.i) #10
  %21 = inttoptr i64 %0 to ptr
  %22 = tail call i64 (ptr, ...) @rb_sprintf(ptr noundef nonnull @.str.29, i64 noundef %20, ptr noundef %21, i64 noundef %4) #10
  ret i64 %22
}